target datalayout = "e-m:e-p270:32:32-p271:32:32-p272:64:64-i64:64-i128:128-f80:128-n8:16:32:64-S128"
target triple = "x86_64-pc-linux-gnu"

%struct.ident_t = type { i32, i32, i32, i32, ptr }

@1 = private unnamed_addr constant %struct.ident_t { i32 0, i32 514, i32 0, i32 22, ptr @0 }, align 8

; Function Attrs: norecurse nounwind uwtable
define internal void @_ZN12SparseMatrixIfE7SolveCGIfEEiRKS0_PKT_iPS4_S4_ibbi.omp_outlined.101(ptr noalias noundef %0, ptr noalias noundef %1, ptr noundef nonnull align 4 dereferenceable(4) %2, ptr noundef nonnull align 8 dereferenceable(8) %3, ptr noundef nonnull align 8 dereferenceable(8) %4, ptr noundef nonnull align 4 dereferenceable(4) %5) #17 {
  %7 = alloca ptr, align 8
  %8 = alloca ptr, align 8
  %9 = alloca ptr, align 8
  %10 = alloca ptr, align 8
  %11 = alloca ptr, align 8
  %12 = alloca ptr, align 8
  %13 = alloca i32, align 4
  %14 = alloca i32, align 4
  %15 = alloca i32, align 4
  %16 = alloca i32, align 4
  %17 = alloca i32, align 4
  %18 = alloca i32, align 4
  %19 = alloca i32, align 4
  %20 = alloca i32, align 4
  %21 = alloca i32, align 4
  store ptr %0, ptr %7, align 8
  store ptr %1, ptr %8, align 8
  store ptr %2, ptr %9, align 8
  store ptr %3, ptr %10, align 8
  store ptr %4, ptr %11, align 8
  store ptr %5, ptr %12, align 8
  %22 = load ptr, ptr %9, align 8
  %23 = load ptr, ptr %10, align 8
  %24 = load ptr, ptr %11, align 8
  %25 = load ptr, ptr %12, align 8
  %26 = load i32, ptr %22, align 4
  store i32 %26, ptr %14, align 4
  %27 = load i32, ptr %14, align 4
  %28 = sub nsw i32 %27, 0
  %29 = sdiv i32 %28, 1
  %30 = sub nsw i32 %29, 1
  store i32 %30, ptr %15, align 4
  store i32 0, ptr %16, align 4
  %31 = load i32, ptr %14, align 4
  %32 = icmp slt i32 0, %31
  br i1 %32, label %33, label %75

33:                                               ; preds = %6
  store i32 0, ptr %17, align 4
  %34 = load i32, ptr %15, align 4
  store i32 %34, ptr %18, align 4
  store i32 1, ptr %19, align 4
  store i32 0, ptr %20, align 4
  %35 = load ptr, ptr %7, align 8
  %36 = load i32, ptr %35, align 4
  call void @__kmpc_for_static_init_4(ptr @1, i32 %36, i32 34, ptr %20, ptr %17, ptr %18, ptr %19, i32 1, i32 1)
  %37 = load i32, ptr %18, align 4
  %38 = load i32, ptr %15, align 4
  %39 = icmp sgt i32 %37, %38
  br i1 %39, label %40, label %42

40:                                               ; preds = %33
  %41 = load i32, ptr %15, align 4
  br label %44

42:                                               ; preds = %33
  %43 = load i32, ptr %18, align 4
  br label %44

44:                                               ; preds = %42, %40
  %45 = phi i32 [ %41, %40 ], [ %43, %42 ]
  store i32 %45, ptr %18, align 4
  %46 = load i32, ptr %17, align 4
  store i32 %46, ptr %13, align 4
  br label %47

47:                                               ; preds = %68, %44
  %48 = load i32, ptr %13, align 4
  %49 = load i32, ptr %18, align 4
  %50 = icmp sle i32 %48, %49
  br i1 %50, label %51, label %71

51:                                               ; preds = %47
  %52 = load i32, ptr %13, align 4
  %53 = mul nsw i32 %52, 1
  %54 = add nsw i32 0, %53
  store i32 %54, ptr %21, align 4
  %55 = load ptr, ptr %24, align 8
  %56 = load i32, ptr %21, align 4
  %57 = sext i32 %56 to i64
  %58 = getelementptr inbounds float, ptr %55, i64 %57
  %59 = load float, ptr %58, align 4
  %60 = load float, ptr %25, align 4
  %61 = load ptr, ptr %23, align 8
  %62 = load i32, ptr %21, align 4
  %63 = sext i32 %62 to i64
  %64 = getelementptr inbounds float, ptr %61, i64 %63
  %65 = load float, ptr %64, align 4
  %66 = call float @llvm.fmuladd.f32(float %59, float %60, float %65)
  store float %66, ptr %64, align 4
  br label %67

67:                                               ; preds = %51
  br label %68

68:                                               ; preds = %67
  %69 = load i32, ptr %13, align 4
  %70 = add nsw i32 %69, 1
  store i32 %70, ptr %13, align 4
  br label %47

71:                                               ; preds = %47
  br label %72

72:                                               ; preds = %71
  %73 = load ptr, ptr %7, align 8
  %74 = load i32, ptr %73, align 4
  call void @__kmpc_for_static_fini(ptr @1, i32 %74)
  br label %75

75:                                               ; preds = %72, %6
  ret void
}