; Function Attrs: norecurse nounwind uwtable
define internal void @_ZN12SparseMatrixIfE7SolveCGIfEEiRKS0_PKT_iPS4_S4_ibbi.omp_outlined.101(ptr noalias nocapture noundef readonly %0, ptr noalias nocapture readnone %1, ptr nocapture noundef nonnull readonly align 4 dereferenceable(4) %2, ptr nocapture noundef nonnull readonly align 8 dereferenceable(8) %3, ptr nocapture noundef nonnull readonly align 8 dereferenceable(8) %4, ptr nocapture noundef nonnull readonly align 4 dereferenceable(4) %5) #23 {
  %7 = alloca i32, align 4
  %8 = alloca i32, align 4
  %9 = alloca i32, align 4
  %10 = alloca i32, align 4
  %11 = load i32, ptr %2, align 4
  %12 = icmp sgt i32 %11, 0
  br i1 %12, label %13, label %30

13:                                               ; preds = %6
  %14 = add nsw i32 %11, -1
  store i32 0, ptr %7, align 4
  store i32 %14, ptr %8, align 4
  store i32 1, ptr %9, align 4
  store i32 0, ptr %10, align 4
  %15 = load i32, ptr %0, align 4
  call void @__kmpc_for_static_init_4(ptr nonnull @1, i32 %15, i32 34, ptr nonnull %10, ptr nonnull %7, ptr nonnull %8, ptr nonnull %9, i32 1, i32 1)
  %16 = load i32, ptr %8, align 4
  %17 = call i32 @llvm.smin.i32(i32 %16, i32 %14)
  store i32 %17, ptr %8, align 4
  %18 = load i32, ptr %7, align 4
  %.not15 = icmp sgt i32 %18, %17
  br i1 %.not15, label %._crit_edge, label %.lr.ph.preheader

.lr.ph.preheader:                                 ; preds = %13
  %19 = sext i32 %18 to i64
  br label %.lr.ph

.lr.ph:                                           ; preds = %.lr.ph.preheader, %.lr.ph
  %indvars.iv = phi i64 [ %19, %.lr.ph.preheader ], [ %indvars.iv.next, %.lr.ph ]
  %20 = load ptr, ptr %4, align 8
  %21 = getelementptr inbounds float, ptr %20, i64 %indvars.iv
  %22 = load float, ptr %21, align 4
  %23 = load float, ptr %5, align 4
  %24 = load ptr, ptr %3, align 8
  %25 = getelementptr inbounds float, ptr %24, i64 %indvars.iv
  %26 = load float, ptr %25, align 4
  %27 = call float @llvm.fmuladd.f32(float %22, float %23, float %26)
  store float %27, ptr %25, align 4
  %indvars.iv.next = add nsw i64 %indvars.iv, 1
  %28 = load i32, ptr %8, align 4
  %29 = sext i32 %28 to i64
  %.not.not = icmp slt i64 %indvars.iv, %29
  br i1 %.not.not, label %.lr.ph, label %._crit_edge

._crit_edge:                                      ; preds = %.lr.ph, %13
  call void @__kmpc_for_static_fini(ptr nonnull @1, i32 %15)
  br label %30

30:                                               ; preds = %._crit_edge, %6
  ret void
}